; ModuleID = '16/1051.c'
source_filename = "16/1051.c"
target datalayout = "e-m:e-p270:32:32-p271:32:32-p272:64:64-i64:64-f80:128-n8:16:32:64-S128"
target triple = "x86_64-pc-linux-gnu"

@.str = private unnamed_addr constant [3 x i8] c"%d\00", align 1
@.str.1 = private unnamed_addr constant [2 x i8] c"0\00", align 1
@.str.2 = private unnamed_addr constant [6 x i8] c"00001\00", align 1

; Function Attrs: noinline nounwind uwtable
define dso_local void @main() #0 {
  %1 = alloca i32, align 4
  %2 = alloca i32, align 4
  %3 = alloca i32, align 4
  %4 = alloca i32, align 4
  %5 = alloca i32, align 4
  %6 = alloca i32, align 4
  %7 = alloca i32, align 4
  store i32 0, i32* %3, align 4
  %8 = call i32 (i8*, ...) @__isoc99_scanf(i8* getelementptr inbounds ([3 x i8], [3 x i8]* @.str, i64 0, i64 0), i32* %1)
  %9 = load i32, i32* %1, align 4
  %10 = icmp sgt i32 %9, 0
  br i1 %10, label %11, label %63

11:                                               ; preds = %0
  %12 = load i32, i32* %1, align 4
  %13 = icmp slt i32 %12, 10000
  br i1 %13, label %14, label %63

14:                                               ; preds = %11
  store i32 4, i32* %5, align 4
  br label %15

15:                                               ; preds = %36, %14
  %16 = load i32, i32* %5, align 4
  %17 = icmp sge i32 %16, 1
  br i1 %17, label %18, label %39

18:                                               ; preds = %15
  %19 = load i32, i32* %1, align 4
  %20 = load i32, i32* %5, align 4
  %21 = sitofp i32 %20 to double
  %22 = call double @pow(double 1.000000e+01, double %21) #3
  %23 = fptosi double %22 to i32
  %24 = srem i32 %19, %23
  %25 = load i32, i32* %5, align 4
  %26 = sub nsw i32 %25, 1
  store i32 %26, i32* %6, align 4
  %27 = sitofp i32 %26 to double
  %28 = call double @pow(double 1.000000e+01, double %27) #3
  %29 = fptosi double %28 to i32
  %30 = sdiv i32 %24, %29
  store i32 %30, i32* %2, align 4
  %31 = load i32, i32* %2, align 4
  %32 = icmp ne i32 %31, 0
  br i1 %32, label %33, label %35

33:                                               ; preds = %18
  %34 = load i32, i32* %5, align 4
  store i32 %34, i32* %7, align 4
  br label %39

35:                                               ; preds = %18
  br label %36

36:                                               ; preds = %35
  %37 = load i32, i32* %5, align 4
  %38 = add nsw i32 %37, -1
  store i32 %38, i32* %5, align 4
  br label %15

39:                                               ; preds = %33, %15
  store i32 1, i32* %5, align 4
  br label %40

40:                                               ; preds = %59, %39
  %41 = load i32, i32* %5, align 4
  %42 = load i32, i32* %7, align 4
  %43 = icmp sle i32 %41, %42
  br i1 %43, label %44, label %62

44:                                               ; preds = %40
  %45 = load i32, i32* %1, align 4
  %46 = load i32, i32* %5, align 4
  %47 = sitofp i32 %46 to double
  %48 = call double @pow(double 1.000000e+01, double %47) #3
  %49 = fptosi double %48 to i32
  %50 = srem i32 %45, %49
  %51 = load i32, i32* %5, align 4
  %52 = sub nsw i32 %51, 1
  store i32 %52, i32* %6, align 4
  %53 = sitofp i32 %52 to double
  %54 = call double @pow(double 1.000000e+01, double %53) #3
  %55 = fptosi double %54 to i32
  %56 = sdiv i32 %50, %55
  store i32 %56, i32* %4, align 4
  %57 = load i32, i32* %4, align 4
  %58 = call i32 (i8*, ...) @printf(i8* getelementptr inbounds ([3 x i8], [3 x i8]* @.str, i64 0, i64 0), i32 %57)
  br label %59

59:                                               ; preds = %44
  %60 = load i32, i32* %5, align 4
  %61 = add nsw i32 %60, 1
  store i32 %61, i32* %5, align 4
  br label %40

62:                                               ; preds = %40
  br label %75

63:                                               ; preds = %11, %0
  %64 = load i32, i32* %1, align 4
  %65 = icmp eq i32 %64, 0
  br i1 %65, label %66, label %68

66:                                               ; preds = %63
  %67 = call i32 (i8*, ...) @printf(i8* getelementptr inbounds ([2 x i8], [2 x i8]* @.str.1, i64 0, i64 0))
  br label %74

68:                                               ; preds = %63
  %69 = load i32, i32* %1, align 4
  %70 = icmp eq i32 %69, 10000
  br i1 %70, label %71, label %73

71:                                               ; preds = %68
  %72 = call i32 (i8*, ...) @printf(i8* getelementptr inbounds ([6 x i8], [6 x i8]* @.str.2, i64 0, i64 0))
  br label %73

73:                                               ; preds = %71, %68
  br label %74

74:                                               ; preds = %73, %66
  br label %75

75:                                               ; preds = %74, %62
  ret void
}

declare dso_local i32 @__isoc99_scanf(i8*, ...) #1

; Function Attrs: nounwind
declare dso_local double @pow(double, double) #2

declare dso_local i32 @printf(i8*, ...) #1


!llvm.module.flags = !{!0}
!llvm.ident = !{!1}

!0 = !{i32 1, !"wchar_size", i32 4}
!1 = !{!"clang version 10.0.0-4ubuntu1 "}
